target datalayout = "e-m:e-p270:32:32-p271:32:32-p272:64:64-i64:64-i128:128-f80:128-n8:16:32:64-S128"
target triple = "x86_64-pc-linux-gnu"

%struct.PJconsts = type { ptr, ptr, ptr, ptr, ptr, ptr, ptr, ptr, ptr, ptr, ptr, ptr, i32, ptr, ptr, ptr, ptr, ptr, ptr, ptr, ptr, double, double, double, double, double, double, double, double, double, double, double, double, double, double, double, double, double, double, double, double, double, double, i32, i32, i32, i32, i32, i32, i32, i32, i32, i32, i32, ptr, ptr, ptr, ptr, ptr, ptr, double, double, double, double, double, double, double, double, double, double, double, i32, [7 x double], i32, ptr, ptr, double, double, i32, [4 x i8], %"class.std::shared_ptr", i8, double, i8, %"class.std::__cxx11::basic_string", %"class.std::__cxx11::basic_string", %"class.std::__cxx11::basic_string", i8, %"class.std::vector", i32, %"class.std::vector.3", i32, i8, i8, i8, ptr }
%"class.std::shared_ptr" = type { %"class.std::__shared_ptr" }
%"class.std::__shared_ptr" = type { ptr, %"class.std::__shared_count" }
%"class.std::__shared_count" = type { ptr }
%"class.std::__cxx11::basic_string" = type { %"struct.std::__cxx11::basic_string<char>::_Alloc_hider", i64, %union.anon }
%"struct.std::__cxx11::basic_string<char>::_Alloc_hider" = type { ptr }
%union.anon = type { i64, [8 x i8] }
%"class.std::vector" = type { %"struct.std::_Vector_base" }
%"struct.std::_Vector_base" = type { %"struct.std::_Vector_base<osgeo::proj::operation::GridDescription, std::allocator<osgeo::proj::operation::GridDescription>>::_Vector_impl" }
%"struct.std::_Vector_base<osgeo::proj::operation::GridDescription, std::allocator<osgeo::proj::operation::GridDescription>>::_Vector_impl" = type { %"struct.std::_Vector_base<osgeo::proj::operation::GridDescription, std::allocator<osgeo::proj::operation::GridDescription>>::_Vector_impl_data" }
%"struct.std::_Vector_base<osgeo::proj::operation::GridDescription, std::allocator<osgeo::proj::operation::GridDescription>>::_Vector_impl_data" = type { ptr, ptr, ptr }
%"class.std::vector.3" = type { %"struct.std::_Vector_base.4" }
%"struct.std::_Vector_base.4" = type { %"struct.std::_Vector_base<PJCoordOperation, std::allocator<PJCoordOperation>>::_Vector_impl" }
%"struct.std::_Vector_base<PJCoordOperation, std::allocator<PJCoordOperation>>::_Vector_impl" = type { %"struct.std::_Vector_base<PJCoordOperation, std::allocator<PJCoordOperation>>::_Vector_impl_data" }
%"struct.std::_Vector_base<PJCoordOperation, std::allocator<PJCoordOperation>>::_Vector_impl_data" = type { ptr, ptr, ptr }
%"struct.(anonymous namespace)::pj_stere" = type { double, double, double, double, i32 }
%struct.PJ_LP = type { double, double }
%struct.PJ_XY = type { double, double }

; Function Attrs: mustprogress uwtable
define internal { double, double } @_ZL15stere_s_forward5PJ_LPP8PJconsts(double %0, double %1, ptr noundef %2) #0 {
  %4 = alloca %struct.PJ_XY, align 8
  %5 = alloca %struct.PJ_LP, align 8
  %6 = alloca ptr, align 8
  %7 = alloca ptr, align 8
  %8 = alloca double, align 8
  %9 = alloca double, align 8
  %10 = alloca double, align 8
  %11 = alloca double, align 8
  %12 = alloca i32, align 4
  %13 = getelementptr inbounds nuw { double, double }, ptr %5, i32 0, i32 0
  store double %0, ptr %13, align 8
  %14 = getelementptr inbounds nuw { double, double }, ptr %5, i32 0, i32 1
  store double %1, ptr %14, align 8
  store ptr %2, ptr %6, align 8, !tbaa !3
  call void @llvm.memset.p0.i64(ptr align 8 %4, i8 0, i64 16, i1 false)
  call void @llvm.lifetime.start.p0(i64 8, ptr %7) #9
  %15 = load ptr, ptr %6, align 8, !tbaa !3
  %16 = getelementptr inbounds nuw %struct.PJconsts, ptr %15, i32 0, i32 11
  %17 = load ptr, ptr %16, align 8, !tbaa !43
  store ptr %17, ptr %7, align 8, !tbaa !41
  call void @llvm.lifetime.start.p0(i64 8, ptr %8) #9
  call void @llvm.lifetime.start.p0(i64 8, ptr %9) #9
  call void @llvm.lifetime.start.p0(i64 8, ptr %10) #9
  call void @llvm.lifetime.start.p0(i64 8, ptr %11) #9
  %18 = getelementptr inbounds nuw %struct.PJ_LP, ptr %5, i32 0, i32 1
  %19 = load double, ptr %18, align 8, !tbaa !67
  %20 = call double @sin(double noundef %19) #9, !tbaa !55
  store double %20, ptr %8, align 8, !tbaa !50
  %21 = getelementptr inbounds nuw %struct.PJ_LP, ptr %5, i32 0, i32 1
  %22 = load double, ptr %21, align 8, !tbaa !67
  %23 = call double @cos(double noundef %22) #9, !tbaa !55
  store double %23, ptr %9, align 8, !tbaa !50
  %24 = getelementptr inbounds nuw %struct.PJ_LP, ptr %5, i32 0, i32 0
  %25 = load double, ptr %24, align 8, !tbaa !69
  %26 = call double @cos(double noundef %25) #9, !tbaa !55
  store double %26, ptr %10, align 8, !tbaa !50
  %27 = getelementptr inbounds nuw %struct.PJ_LP, ptr %5, i32 0, i32 0
  %28 = load double, ptr %27, align 8, !tbaa !69
  %29 = call double @sin(double noundef %28) #9, !tbaa !55
  store double %29, ptr %11, align 8, !tbaa !50
  %30 = load ptr, ptr %7, align 8, !tbaa !41
  %31 = getelementptr inbounds nuw %"struct.(anonymous namespace)::pj_stere", ptr %30, i32 0, i32 4
  %32 = load i32, ptr %31, align 8, !tbaa !51
  switch i32 %32, label %142 [
    i32 3, label %33
    i32 2, label %38
    i32 1, label %107
    i32 0, label %114
  ]

33:                                               ; preds = %3
  %34 = load double, ptr %9, align 8, !tbaa !50
  %35 = load double, ptr %10, align 8, !tbaa !50
  %36 = call double @llvm.fmuladd.f64(double %34, double %35, double 1.000000e+00)
  %37 = getelementptr inbounds nuw %struct.PJ_XY, ptr %4, i32 0, i32 1
  store double %36, ptr %37, align 8, !tbaa !66
  br label %56

38:                                               ; preds = %3
  %39 = load ptr, ptr %6, align 8, !tbaa !3
  %40 = getelementptr inbounds nuw %struct.PJconsts, ptr %39, i32 0, i32 11
  %41 = load ptr, ptr %40, align 8, !tbaa !43
  %42 = getelementptr inbounds nuw %"struct.(anonymous namespace)::pj_stere", ptr %41, i32 0, i32 1
  %43 = load double, ptr %42, align 8, !tbaa !57
  %44 = load double, ptr %8, align 8, !tbaa !50
  %45 = call double @llvm.fmuladd.f64(double %43, double %44, double 1.000000e+00)
  %46 = load ptr, ptr %6, align 8, !tbaa !3
  %47 = getelementptr inbounds nuw %struct.PJconsts, ptr %46, i32 0, i32 11
  %48 = load ptr, ptr %47, align 8, !tbaa !43
  %49 = getelementptr inbounds nuw %"struct.(anonymous namespace)::pj_stere", ptr %48, i32 0, i32 2
  %50 = load double, ptr %49, align 8, !tbaa !58
  %51 = load double, ptr %9, align 8, !tbaa !50
  %52 = fmul double %50, %51
  %53 = load double, ptr %10, align 8, !tbaa !50
  %54 = call double @llvm.fmuladd.f64(double %52, double %53, double %45)
  %55 = getelementptr inbounds nuw %struct.PJ_XY, ptr %4, i32 0, i32 1
  store double %54, ptr %55, align 8, !tbaa !66
  br label %56

56:                                               ; preds = %38, %33
  %57 = getelementptr inbounds nuw %struct.PJ_XY, ptr %4, i32 0, i32 1
  %58 = load double, ptr %57, align 8, !tbaa !66
  %59 = fcmp ole double %58, 1.000000e-10
  br i1 %59, label %60, label %63

60:                                               ; preds = %56
  %61 = load ptr, ptr %6, align 8, !tbaa !3
  %62 = call i32 @proj_errno_set(ptr noundef %61, i32 noundef 2050)
  store i32 1, ptr %12, align 4
  br label %143

63:                                               ; preds = %56
  %64 = load ptr, ptr %7, align 8, !tbaa !41
  %65 = getelementptr inbounds nuw %"struct.(anonymous namespace)::pj_stere", ptr %64, i32 0, i32 3
  %66 = load double, ptr %65, align 8, !tbaa !56
  %67 = getelementptr inbounds nuw %struct.PJ_XY, ptr %4, i32 0, i32 1
  %68 = load double, ptr %67, align 8, !tbaa !66
  %69 = fdiv double %66, %68
  %70 = getelementptr inbounds nuw %struct.PJ_XY, ptr %4, i32 0, i32 1
  store double %69, ptr %70, align 8, !tbaa !66
  %71 = getelementptr inbounds nuw %struct.PJ_XY, ptr %4, i32 0, i32 1
  %72 = load double, ptr %71, align 8, !tbaa !66
  %73 = load double, ptr %9, align 8, !tbaa !50
  %74 = fmul double %72, %73
  %75 = load double, ptr %11, align 8, !tbaa !50
  %76 = fmul double %74, %75
  %77 = getelementptr inbounds nuw %struct.PJ_XY, ptr %4, i32 0, i32 0
  store double %76, ptr %77, align 8, !tbaa !64
  %78 = load ptr, ptr %7, align 8, !tbaa !41
  %79 = getelementptr inbounds nuw %"struct.(anonymous namespace)::pj_stere", ptr %78, i32 0, i32 4
  %80 = load i32, ptr %79, align 8, !tbaa !51
  %81 = icmp eq i32 %80, 3
  br i1 %81, label %82, label %84

82:                                               ; preds = %63
  %83 = load double, ptr %8, align 8, !tbaa !50
  br label %102

84:                                               ; preds = %63
  %85 = load ptr, ptr %6, align 8, !tbaa !3
  %86 = getelementptr inbounds nuw %struct.PJconsts, ptr %85, i32 0, i32 11
  %87 = load ptr, ptr %86, align 8, !tbaa !43
  %88 = getelementptr inbounds nuw %"struct.(anonymous namespace)::pj_stere", ptr %87, i32 0, i32 2
  %89 = load double, ptr %88, align 8, !tbaa !58
  %90 = load double, ptr %8, align 8, !tbaa !50
  %91 = load ptr, ptr %6, align 8, !tbaa !3
  %92 = getelementptr inbounds nuw %struct.PJconsts, ptr %91, i32 0, i32 11
  %93 = load ptr, ptr %92, align 8, !tbaa !43
  %94 = getelementptr inbounds nuw %"struct.(anonymous namespace)::pj_stere", ptr %93, i32 0, i32 1
  %95 = load double, ptr %94, align 8, !tbaa !57
  %96 = load double, ptr %9, align 8, !tbaa !50
  %97 = fmul double %95, %96
  %98 = load double, ptr %10, align 8, !tbaa !50
  %99 = fmul double %97, %98
  %100 = fneg double %99
  %101 = call double @llvm.fmuladd.f64(double %89, double %90, double %100)
  br label %102

102:                                              ; preds = %84, %82
  %103 = phi double [ %83, %82 ], [ %101, %84 ]
  %104 = getelementptr inbounds nuw %struct.PJ_XY, ptr %4, i32 0, i32 1
  %105 = load double, ptr %104, align 8, !tbaa !66
  %106 = fmul double %105, %103
  store double %106, ptr %104, align 8, !tbaa !66
  br label %142

107:                                              ; preds = %3
  %108 = load double, ptr %10, align 8, !tbaa !50
  %109 = fneg double %108
  store double %109, ptr %10, align 8, !tbaa !50
  %110 = getelementptr inbounds nuw %struct.PJ_LP, ptr %5, i32 0, i32 1
  %111 = load double, ptr %110, align 8, !tbaa !67
  %112 = fneg double %111
  %113 = getelementptr inbounds nuw %struct.PJ_LP, ptr %5, i32 0, i32 1
  store double %112, ptr %113, align 8, !tbaa !67
  br label %114

114:                                              ; preds = %3, %107
  %115 = getelementptr inbounds nuw %struct.PJ_LP, ptr %5, i32 0, i32 1
  %116 = load double, ptr %115, align 8, !tbaa !67
  %117 = fsub double %116, 0x3FF921FB54442D18
  %118 = call double @llvm.fabs.f64(double %117)
  %119 = fcmp olt double %118, 1.000000e-08
  br i1 %119, label %120, label %123

120:                                              ; preds = %114
  %121 = load ptr, ptr %6, align 8, !tbaa !3
  %122 = call i32 @proj_errno_set(ptr noundef %121, i32 noundef 2050)
  store i32 1, ptr %12, align 4
  br label %143

123:                                              ; preds = %114
  %124 = load ptr, ptr %7, align 8, !tbaa !41
  %125 = getelementptr inbounds nuw %"struct.(anonymous namespace)::pj_stere", ptr %124, i32 0, i32 3
  %126 = load double, ptr %125, align 8, !tbaa !56
  %127 = getelementptr inbounds nuw %struct.PJ_LP, ptr %5, i32 0, i32 1
  %128 = load double, ptr %127, align 8, !tbaa !67
  %129 = call double @llvm.fmuladd.f64(double 5.000000e-01, double %128, double 0x3FE921FB54442D18)
  %130 = call double @tan(double noundef %129) #9, !tbaa !55
  %131 = fmul double %126, %130
  %132 = getelementptr inbounds nuw %struct.PJ_XY, ptr %4, i32 0, i32 1
  store double %131, ptr %132, align 8, !tbaa !66
  %133 = load double, ptr %11, align 8, !tbaa !50
  %134 = getelementptr inbounds nuw %struct.PJ_XY, ptr %4, i32 0, i32 1
  %135 = load double, ptr %134, align 8, !tbaa !66
  %136 = fmul double %133, %135
  %137 = getelementptr inbounds nuw %struct.PJ_XY, ptr %4, i32 0, i32 0
  store double %136, ptr %137, align 8, !tbaa !64
  %138 = load double, ptr %10, align 8, !tbaa !50
  %139 = getelementptr inbounds nuw %struct.PJ_XY, ptr %4, i32 0, i32 1
  %140 = load double, ptr %139, align 8, !tbaa !66
  %141 = fmul double %140, %138
  store double %141, ptr %139, align 8, !tbaa !66
  br label %142

142:                                              ; preds = %3, %123, %102
  store i32 1, ptr %12, align 4
  br label %143

143:                                              ; preds = %142, %120, %60
  call void @llvm.lifetime.end.p0(i64 8, ptr %11) #9
  call void @llvm.lifetime.end.p0(i64 8, ptr %10) #9
  call void @llvm.lifetime.end.p0(i64 8, ptr %9) #9
  call void @llvm.lifetime.end.p0(i64 8, ptr %8) #9
  call void @llvm.lifetime.end.p0(i64 8, ptr %7) #9
  %144 = load { double, double }, ptr %4, align 8
  ret { double, double } %144
}