; Function Attrs: mustprogress uwtable
define internal { double, double } @_ZL15stere_s_forward5PJ_LPP8PJconsts(double %0, double %1, ptr noundef %2) #0 {
  %4 = getelementptr inbounds nuw i8, ptr %2, i64 88
  %5 = load ptr, ptr %4, align 8, !tbaa !3
  %6 = tail call double @sin(double noundef %1) #8, !tbaa !50
  %7 = tail call double @cos(double noundef %1) #8, !tbaa !50
  %8 = tail call double @cos(double noundef %0) #8, !tbaa !50
  %9 = tail call double @sin(double noundef %0) #8, !tbaa !50
  %10 = getelementptr inbounds nuw i8, ptr %5, i64 32
  %11 = load i32, ptr %10, align 8, !tbaa !46
  switch i32 %11, label %58 [
    i32 3, label %12
    i32 2, label %.thread
    i32 1, label %41
    i32 0, label %44
  ]

12:                                               ; preds = %3
  %13 = tail call double @llvm.fmuladd.f64(double %7, double %8, double 1.000000e+00)
  %14 = fcmp ugt double %13, 1.000000e-10
  br i1 %14, label %32, label %30

.thread:                                          ; preds = %3
  %15 = getelementptr inbounds nuw i8, ptr %5, i64 8
  %16 = load double, ptr %15, align 8, !tbaa !52
  %17 = tail call double @llvm.fmuladd.f64(double %16, double %6, double 1.000000e+00)
  %18 = getelementptr inbounds nuw i8, ptr %5, i64 16
  %19 = load double, ptr %18, align 8, !tbaa !53
  %20 = fmul double %7, %19
  %21 = tail call double @llvm.fmuladd.f64(double %20, double %8, double %17)
  %22 = fcmp ugt double %21, 1.000000e-10
  br i1 %22, label %.thread39, label %30

.thread39:                                        ; preds = %.thread
  %23 = getelementptr inbounds nuw i8, ptr %5, i64 24
  %24 = load double, ptr %23, align 8, !tbaa !51
  %25 = fdiv double %24, %21
  %26 = fmul double %7, %16
  %27 = fneg double %8
  %28 = fmul double %26, %27
  %29 = tail call double @llvm.fmuladd.f64(double %19, double %6, double %28)
  br label %36

30:                                               ; preds = %.thread, %12
  %.sroa.4.138 = phi double [ %21, %.thread ], [ %13, %12 ]
  %31 = tail call i32 @proj_errno_set(ptr noundef nonnull %2, i32 noundef 2050)
  br label %58

32:                                               ; preds = %12
  %33 = getelementptr inbounds nuw i8, ptr %5, i64 24
  %34 = load double, ptr %33, align 8, !tbaa !51
  %35 = fdiv double %34, %13
  br label %36

36:                                               ; preds = %32, %.thread39
  %37 = phi double [ %25, %.thread39 ], [ %35, %32 ]
  %38 = phi double [ %29, %.thread39 ], [ %6, %32 ]
  %.pn = fmul double %7, %37
  %39 = fmul double %9, %.pn
  %40 = fmul double %37, %38
  br label %58

41:                                               ; preds = %3
  %42 = fneg double %8
  %43 = fneg double %1
  br label %44

44:                                               ; preds = %41, %3
  %.sroa.3.0 = phi double [ %1, %3 ], [ %43, %41 ]
  %.0 = phi double [ %8, %3 ], [ %42, %41 ]
  %45 = fadd double %.sroa.3.0, 0xBFF921FB54442D18
  %46 = tail call double @llvm.fabs.f64(double %45)
  %47 = fcmp olt double %46, 1.000000e-08
  br i1 %47, label %48, label %50

48:                                               ; preds = %44
  %49 = tail call i32 @proj_errno_set(ptr noundef nonnull %2, i32 noundef 2050)
  br label %58

50:                                               ; preds = %44
  %51 = getelementptr inbounds nuw i8, ptr %5, i64 24
  %52 = load double, ptr %51, align 8, !tbaa !51
  %53 = tail call double @llvm.fmuladd.f64(double %.sroa.3.0, double 5.000000e-01, double 0x3FE921FB54442D18)
  %54 = tail call double @tan(double noundef %53) #8, !tbaa !50
  %55 = fmul double %52, %54
  %56 = fmul double %9, %55
  %57 = fmul double %.0, %55
  br label %58

58:                                               ; preds = %3, %36, %50, %48, %30
  %.sroa.4.2 = phi double [ 0.000000e+00, %48 ], [ %.sroa.4.138, %30 ], [ 0.000000e+00, %3 ], [ %57, %50 ], [ %40, %36 ]
  %.sroa.030.1 = phi double [ 0.000000e+00, %48 ], [ 0.000000e+00, %30 ], [ 0.000000e+00, %3 ], [ %56, %50 ], [ %39, %36 ]
  %.fca.0.insert = insertvalue { double, double } poison, double %.sroa.030.1, 0
  %.fca.1.insert = insertvalue { double, double } %.fca.0.insert, double %.sroa.4.2, 1
  ret { double, double } %.fca.1.insert
}